target datalayout = "e-m:e-p270:32:32-p271:32:32-p272:64:64-i64:64-i128:128-f80:128-n8:16:32:64-S128"
target triple = "x86_64-pc-linux-gnu"

%"class.icu_77::UnifiedCache" = type { %"class.icu_77::UnifiedCacheBase", ptr, i32, i32, i32, i32, i32, i64, ptr }
%"class.icu_77::UnifiedCacheBase" = type { %"class.icu_77::UObject" }
%"class.icu_77::UObject" = type { ptr }

; Function Attrs: mustprogress uwtable
define linkonce_odr void @_ZN6icu_7712SharedObject7copyPtrIS0_EEvPKT_RS4_(ptr noundef %0, ptr noundef nonnull align 8 dereferenceable(8) %1) #0 comdat align 2 {
  %3 = alloca ptr, align 8
  %4 = alloca ptr, align 8
  store ptr %0, ptr %3, align 8, !tbaa !46
  store ptr %1, ptr %4, align 8, !tbaa !65
  %5 = load ptr, ptr %3, align 8, !tbaa !46
  %6 = load ptr, ptr %4, align 8, !tbaa !65
  %7 = load ptr, ptr %6, align 8, !tbaa !46
  %8 = icmp ne ptr %5, %7
  br i1 %8, label %9, label %24

9:                                                ; preds = %2
  %10 = load ptr, ptr %4, align 8, !tbaa !65
  %11 = load ptr, ptr %10, align 8, !tbaa !46
  %12 = icmp ne ptr %11, null
  br i1 %12, label %13, label %16

13:                                               ; preds = %9
  %14 = load ptr, ptr %4, align 8, !tbaa !65
  %15 = load ptr, ptr %14, align 8, !tbaa !46
  call void @_ZNK6icu_7712SharedObject9removeRefEv(ptr noundef nonnull align 8 dereferenceable(24) %15)
  br label %16

16:                                               ; preds = %13, %9
  %17 = load ptr, ptr %3, align 8, !tbaa !46
  %18 = load ptr, ptr %4, align 8, !tbaa !65
  store ptr %17, ptr %18, align 8, !tbaa !46
  %19 = load ptr, ptr %3, align 8, !tbaa !46
  %20 = icmp ne ptr %19, null
  br i1 %20, label %21, label %23

21:                                               ; preds = %16
  %22 = load ptr, ptr %3, align 8, !tbaa !46
  call void @_ZNK6icu_7712SharedObject6addRefEv(ptr noundef nonnull align 8 dereferenceable(24) %22)
  br label %23

23:                                               ; preds = %21, %16
  br label %24

24:                                               ; preds = %23, %2
  ret void
}

; Function Attrs: inlinehint mustprogress nounwind uwtable
define internal noundef signext i8 @_ZL9U_FAILURE10UErrorCode(i32 noundef %0) #6 {
  %2 = alloca i32, align 4
  store i32 %0, ptr %2, align 4, !tbaa !12
  %3 = load i32, ptr %2, align 4, !tbaa !12
  %4 = icmp sgt i32 %3, 0
  %5 = zext i1 %4 to i8
  ret i8 %5
}

; Function Attrs: mustprogress uwtable
define linkonce_odr void @_ZN6icu_7712SharedObject8clearPtrIS0_EEvRPKT_(ptr noundef nonnull align 8 dereferenceable(8) %0) #0 comdat align 2 {
  %2 = alloca ptr, align 8
  store ptr %0, ptr %2, align 8, !tbaa !65
  %3 = load ptr, ptr %2, align 8, !tbaa !65
  %4 = load ptr, ptr %3, align 8, !tbaa !46
  %5 = icmp ne ptr %4, null
  br i1 %5, label %6, label %10

6:                                                ; preds = %1
  %7 = load ptr, ptr %2, align 8, !tbaa !65
  %8 = load ptr, ptr %7, align 8, !tbaa !46
  call void @_ZNK6icu_7712SharedObject9removeRefEv(ptr noundef nonnull align 8 dereferenceable(24) %8)
  %9 = load ptr, ptr %2, align 8, !tbaa !65
  store ptr null, ptr %9, align 8, !tbaa !46
  br label %10

10:                                               ; preds = %6, %1
  ret void
}

; Function Attrs: mustprogress uwtable
define void @_ZNK6icu_7712UnifiedCache4_getERKNS_12CacheKeyBaseERPKNS_12SharedObjectEPKvR10UErrorCode(ptr noundef nonnull align 8 dereferenceable(56) %0, ptr noundef nonnull align 8 dereferenceable(13) %1, ptr noundef nonnull align 8 dereferenceable(8) %2, ptr noundef %3, ptr noundef nonnull align 4 dereferenceable(4) %4) #0 align 2 {
  %6 = alloca ptr, align 8
  %7 = alloca ptr, align 8
  %8 = alloca ptr, align 8
  %9 = alloca ptr, align 8
  %10 = alloca ptr, align 8
  store ptr %0, ptr %6, align 8, !tbaa !14
  store ptr %1, ptr %7, align 8, !tbaa !6
  store ptr %2, ptr %8, align 8, !tbaa !65
  store ptr %3, ptr %9, align 8, !tbaa !11
  store ptr %4, ptr %10, align 8, !tbaa !11
  %11 = load ptr, ptr %6, align 8
  %12 = load ptr, ptr %7, align 8, !tbaa !6
  %13 = load ptr, ptr %8, align 8, !tbaa !65
  %14 = load ptr, ptr %10, align 8, !tbaa !11
  %15 = call noundef signext i8 @_ZNK6icu_7712UnifiedCache5_pollERKNS_12CacheKeyBaseERPKNS_12SharedObjectER10UErrorCode(ptr noundef nonnull align 8 dereferenceable(56) %11, ptr noundef nonnull align 8 dereferenceable(13) %12, ptr noundef nonnull align 8 dereferenceable(8) %13, ptr noundef nonnull align 4 dereferenceable(4) %14)
  %16 = icmp ne i8 %15, 0
  br i1 %16, label %17, label %26

17:                                               ; preds = %5
  %18 = load ptr, ptr %8, align 8, !tbaa !65
  %19 = load ptr, ptr %18, align 8, !tbaa !46
  %20 = getelementptr inbounds nuw %"class.icu_77::UnifiedCache", ptr %11, i32 0, i32 8
  %21 = load ptr, ptr %20, align 8, !tbaa !40
  %22 = icmp eq ptr %19, %21
  br i1 %22, label %23, label %25

23:                                               ; preds = %17
  %24 = load ptr, ptr %8, align 8, !tbaa !65
  call void @_ZN6icu_7712SharedObject8clearPtrIS0_EEvRPKT_(ptr noundef nonnull align 8 dereferenceable(8) %24)
  br label %25

25:                                               ; preds = %23, %17
  br label %59

26:                                               ; preds = %5
  %27 = load ptr, ptr %10, align 8, !tbaa !11
  %28 = load i32, ptr %27, align 4, !tbaa !12
  %29 = call noundef signext i8 @_ZL9U_FAILURE10UErrorCode(i32 noundef %28)
  %30 = icmp ne i8 %29, 0
  br i1 %30, label %31, label %32

31:                                               ; preds = %26
  br label %59

32:                                               ; preds = %26
  %33 = load ptr, ptr %7, align 8, !tbaa !6
  %34 = load ptr, ptr %9, align 8, !tbaa !11
  %35 = load ptr, ptr %10, align 8, !tbaa !11
  %36 = load ptr, ptr %33, align 8, !tbaa !9
  %37 = getelementptr inbounds ptr, ptr %36, i64 5
  %38 = load ptr, ptr %37, align 8
  %39 = call noundef ptr %38(ptr noundef nonnull align 8 dereferenceable(13) %33, ptr noundef %34, ptr noundef nonnull align 4 dereferenceable(4) %35)
  %40 = load ptr, ptr %8, align 8, !tbaa !65
  store ptr %39, ptr %40, align 8, !tbaa !46
  %41 = load ptr, ptr %8, align 8, !tbaa !65
  %42 = load ptr, ptr %41, align 8, !tbaa !46
  %43 = icmp eq ptr %42, null
  br i1 %43, label %44, label %48

44:                                               ; preds = %32
  %45 = getelementptr inbounds nuw %"class.icu_77::UnifiedCache", ptr %11, i32 0, i32 8
  %46 = load ptr, ptr %45, align 8, !tbaa !40
  %47 = load ptr, ptr %8, align 8, !tbaa !65
  call void @_ZN6icu_7712SharedObject7copyPtrIS0_EEvPKT_RS4_(ptr noundef %46, ptr noundef nonnull align 8 dereferenceable(8) %47)
  br label %48

48:                                               ; preds = %44, %32
  %49 = load ptr, ptr %7, align 8, !tbaa !6
  %50 = load ptr, ptr %8, align 8, !tbaa !65
  %51 = load ptr, ptr %10, align 8, !tbaa !11
  call void @_ZNK6icu_7712UnifiedCache18_putIfAbsentAndGetERKNS_12CacheKeyBaseERPKNS_12SharedObjectER10UErrorCode(ptr noundef nonnull align 8 dereferenceable(56) %11, ptr noundef nonnull align 8 dereferenceable(13) %49, ptr noundef nonnull align 8 dereferenceable(8) %50, ptr noundef nonnull align 4 dereferenceable(4) %51)
  %52 = load ptr, ptr %8, align 8, !tbaa !65
  %53 = load ptr, ptr %52, align 8, !tbaa !46
  %54 = getelementptr inbounds nuw %"class.icu_77::UnifiedCache", ptr %11, i32 0, i32 8
  %55 = load ptr, ptr %54, align 8, !tbaa !40
  %56 = icmp eq ptr %53, %55
  br i1 %56, label %57, label %59

57:                                               ; preds = %48
  %58 = load ptr, ptr %8, align 8, !tbaa !65
  call void @_ZN6icu_7712SharedObject8clearPtrIS0_EEvRPKT_(ptr noundef nonnull align 8 dereferenceable(8) %58)
  br label %59

59:                                               ; preds = %25, %31, %57, %48
  ret void
}