; Function Attrs: mustprogress uwtable
define void @_ZNK6icu_7712UnifiedCache4_getERKNS_12CacheKeyBaseERPKNS_12SharedObjectEPKvR10UErrorCode(ptr noundef nonnull align 8 dereferenceable(56) %0, ptr noundef nonnull align 8 dereferenceable(13) %1, ptr noundef nonnull align 8 captures(none) dereferenceable(8) %2, ptr noundef %3, ptr noundef nonnull align 4 dereferenceable(4) %4) local_unnamed_addr #0 align 2 {
  %6 = tail call noundef signext i8 @_ZNK6icu_7712UnifiedCache5_pollERKNS_12CacheKeyBaseERPKNS_12SharedObjectER10UErrorCode(ptr noundef nonnull align 8 dereferenceable(56) %0, ptr noundef nonnull align 8 dereferenceable(13) %1, ptr noundef nonnull align 8 dereferenceable(8) %2, ptr noundef nonnull align 4 dereferenceable(4) %4)
  %.not = icmp eq i8 %6, 0
  br i1 %.not, label %12, label %7

7:                                                ; preds = %5
  %8 = load ptr, ptr %2, align 8, !tbaa !48
  %9 = getelementptr inbounds nuw i8, ptr %0, i64 48
  %10 = load ptr, ptr %9, align 8, !tbaa !33
  %11 = icmp ne ptr %8, %10
  %.not.i = icmp eq ptr %8, null
  %or.cond = or i1 %.not.i, %11
  br i1 %or.cond, label %_ZN6icu_7712SharedObject8clearPtrIS0_EEvRPKT_.exit, label %_ZN6icu_7712SharedObject8clearPtrIS0_EEvRPKT_.exit.sink.split

12:                                               ; preds = %5
  %13 = load i32, ptr %4, align 4, !tbaa !6
  %14 = icmp slt i32 %13, 1
  br i1 %14, label %15, label %_ZN6icu_7712SharedObject8clearPtrIS0_EEvRPKT_.exit

15:                                               ; preds = %12
  %16 = load ptr, ptr %1, align 8, !tbaa !3
  %17 = getelementptr inbounds nuw i8, ptr %16, i64 40
  %18 = load ptr, ptr %17, align 8
  %19 = tail call noundef ptr %18(ptr noundef nonnull align 8 dereferenceable(13) %1, ptr noundef %3, ptr noundef nonnull align 4 dereferenceable(4) %4)
  store ptr %19, ptr %2, align 8, !tbaa !48
  %20 = icmp eq ptr %19, null
  br i1 %20, label %21, label %_ZN6icu_7712SharedObject7copyPtrIS0_EEvPKT_RS4_.exit

21:                                               ; preds = %15
  %22 = getelementptr inbounds nuw i8, ptr %0, i64 48
  %23 = load ptr, ptr %22, align 8, !tbaa !33
  %.not.i19 = icmp eq ptr %23, null
  br i1 %.not.i19, label %_ZN6icu_7712SharedObject7copyPtrIS0_EEvPKT_RS4_.exit, label %24

24:                                               ; preds = %21
  store ptr %23, ptr %2, align 8, !tbaa !48
  tail call void @_ZNK6icu_7712SharedObject6addRefEv(ptr noundef nonnull align 8 dereferenceable(24) %23)
  br label %_ZN6icu_7712SharedObject7copyPtrIS0_EEvPKT_RS4_.exit

_ZN6icu_7712SharedObject7copyPtrIS0_EEvPKT_RS4_.exit: ; preds = %24, %21, %15
  tail call void @_ZNK6icu_7712UnifiedCache18_putIfAbsentAndGetERKNS_12CacheKeyBaseERPKNS_12SharedObjectER10UErrorCode(ptr noundef nonnull align 8 dereferenceable(56) %0, ptr noundef nonnull align 8 dereferenceable(13) %1, ptr noundef nonnull align 8 dereferenceable(8) %2, ptr noundef nonnull align 4 dereferenceable(4) %4)
  %25 = load ptr, ptr %2, align 8, !tbaa !48
  %26 = getelementptr inbounds nuw i8, ptr %0, i64 48
  %27 = load ptr, ptr %26, align 8, !tbaa !33
  %28 = icmp ne ptr %25, %27
  %.not.i20 = icmp eq ptr %25, null
  %or.cond22 = or i1 %.not.i20, %28
  br i1 %or.cond22, label %_ZN6icu_7712SharedObject8clearPtrIS0_EEvRPKT_.exit, label %_ZN6icu_7712SharedObject8clearPtrIS0_EEvRPKT_.exit.sink.split

_ZN6icu_7712SharedObject8clearPtrIS0_EEvRPKT_.exit.sink.split: ; preds = %_ZN6icu_7712SharedObject7copyPtrIS0_EEvPKT_RS4_.exit, %7
  %.sink = phi ptr [ %8, %7 ], [ %25, %_ZN6icu_7712SharedObject7copyPtrIS0_EEvPKT_RS4_.exit ]
  tail call void @_ZNK6icu_7712SharedObject9removeRefEv(ptr noundef nonnull align 8 dereferenceable(24) %.sink)
  store ptr null, ptr %2, align 8, !tbaa !48
  br label %_ZN6icu_7712SharedObject8clearPtrIS0_EEvRPKT_.exit

_ZN6icu_7712SharedObject8clearPtrIS0_EEvRPKT_.exit: ; preds = %_ZN6icu_7712SharedObject8clearPtrIS0_EEvRPKT_.exit.sink.split, %12, %7, %_ZN6icu_7712SharedObject7copyPtrIS0_EEvPKT_RS4_.exit
  ret void
}